target datalayout = "e-m:e-p270:32:32-p271:32:32-p272:64:64-i64:64-i128:128-f80:128-n8:16:32:64-S128"
target triple = "x86_64-pc-linux-gnu"

%struct.ColorChartPreset = type { i32, i32, ptr }
%struct.AVFilterContext = type { ptr, ptr, ptr, ptr, ptr, i32, ptr, ptr, i32, ptr, ptr, i32, i32, ptr, ptr, ptr, ptr, i32, ptr, i32, i32 }
%struct.TestSourceContext = type { ptr, i32, i32, i32, i32, i32, %struct.AVRational, %struct.AVRational, i64, i64, %struct.AVRational, i32, i32, ptr, ptr, i32, i32, [4 x i8], i32, %struct.FFDrawContext, %struct.FFDrawColor, [4 x i8], [4 x i8], i32, i32, i32, i32, i32, i32, i32, i32, i32, i32, i32, i32, i32, i32, i32, i32, i32, i32, i32, ptr, ptr }
%struct.AVRational = type { i32, i32 }
%struct.FFDrawContext = type { ptr, i32, i32, [4 x i32], [4 x i8], [4 x i8], i8, i8, i32, i32, i32, [3 x [3 x double]] }
%struct.FFDrawColor = type { [4 x i8], [4 x %union.anon.2] }
%union.anon.2 = type { [4 x i32] }

@colorchart_presets = internal constant [2 x %struct.ColorChartPreset] [%struct.ColorChartPreset { i32 6, i32 4, ptr @reference_colors }, %struct.ColorChartPreset { i32 6, i32 4, ptr @skintones_colors }], align 16

; Function Attrs: cold nounwind optsize uwtable
define internal i32 @colorchart_init(ptr noundef %0) #0 {
  %2 = alloca ptr, align 8
  %3 = alloca ptr, align 8
  %4 = alloca i32, align 4
  %5 = alloca i32, align 4
  %6 = alloca i32, align 4
  store ptr %0, ptr %2, align 8, !tbaa !4
  call void @llvm.lifetime.start.p0(i64 8, ptr %3) #15
  %7 = load ptr, ptr %2, align 8, !tbaa !4
  %8 = getelementptr inbounds nuw %struct.AVFilterContext, ptr %7, i32 0, i32 9
  %9 = load ptr, ptr %8, align 8, !tbaa !9
  store ptr %9, ptr %3, align 8, !tbaa !22
  call void @llvm.lifetime.start.p0(i64 4, ptr %4) #15
  %10 = load ptr, ptr %3, align 8, !tbaa !22
  %11 = getelementptr inbounds nuw %struct.TestSourceContext, ptr %10, i32 0, i32 18
  %12 = load i32, ptr %11, align 4, !tbaa !68
  store i32 %12, ptr %4, align 4, !tbaa !36
  call void @llvm.lifetime.start.p0(i64 4, ptr %5) #15
  %13 = load i32, ptr %4, align 4, !tbaa !36
  %14 = sext i32 %13 to i64
  %15 = getelementptr inbounds [2 x %struct.ColorChartPreset], ptr @colorchart_presets, i64 0, i64 %14
  %16 = getelementptr inbounds nuw %struct.ColorChartPreset, ptr %15, i32 0, i32 0
  %17 = load i32, ptr %16, align 16, !tbaa !69
  store i32 %17, ptr %5, align 4, !tbaa !36
  call void @llvm.lifetime.start.p0(i64 4, ptr %6) #15
  %18 = load i32, ptr %4, align 4, !tbaa !36
  %19 = sext i32 %18 to i64
  %20 = getelementptr inbounds [2 x %struct.ColorChartPreset], ptr @colorchart_presets, i64 0, i64 %19
  %21 = getelementptr inbounds nuw %struct.ColorChartPreset, ptr %20, i32 0, i32 1
  %22 = load i32, ptr %21, align 4, !tbaa !71
  store i32 %22, ptr %6, align 4, !tbaa !36
  %23 = load i32, ptr %5, align 4, !tbaa !36
  %24 = load ptr, ptr %3, align 8, !tbaa !22
  %25 = getelementptr inbounds nuw %struct.TestSourceContext, ptr %24, i32 0, i32 3
  %26 = load i32, ptr %25, align 8, !tbaa !72
  %27 = mul nsw i32 %23, %26
  %28 = load ptr, ptr %3, align 8, !tbaa !22
  %29 = getelementptr inbounds nuw %struct.TestSourceContext, ptr %28, i32 0, i32 1
  store i32 %27, ptr %29, align 8, !tbaa !46
  %30 = load i32, ptr %6, align 4, !tbaa !36
  %31 = load ptr, ptr %3, align 8, !tbaa !22
  %32 = getelementptr inbounds nuw %struct.TestSourceContext, ptr %31, i32 0, i32 4
  %33 = load i32, ptr %32, align 4, !tbaa !73
  %34 = mul nsw i32 %30, %33
  %35 = load ptr, ptr %3, align 8, !tbaa !22
  %36 = getelementptr inbounds nuw %struct.TestSourceContext, ptr %35, i32 0, i32 2
  store i32 %34, ptr %36, align 4, !tbaa !47
  %37 = load ptr, ptr %3, align 8, !tbaa !22
  %38 = getelementptr inbounds nuw %struct.TestSourceContext, ptr %37, i32 0, i32 11
  store i32 1, ptr %38, align 8, !tbaa !32
  %39 = load ptr, ptr %3, align 8, !tbaa !22
  %40 = getelementptr inbounds nuw %struct.TestSourceContext, ptr %39, i32 0, i32 14
  store ptr @colorchart_fill_picture, ptr %40, align 8, !tbaa !24
  %41 = load ptr, ptr %2, align 8, !tbaa !4
  %42 = call i32 @init(ptr noundef %41) #16
  call void @llvm.lifetime.end.p0(i64 4, ptr %6) #15
  call void @llvm.lifetime.end.p0(i64 4, ptr %5) #15
  call void @llvm.lifetime.end.p0(i64 4, ptr %4) #15
  call void @llvm.lifetime.end.p0(i64 8, ptr %3) #15
  ret i32 %42
}