; Function Attrs: cold nounwind optsize uwtable
define internal noundef i32 @colorchart_init(ptr noundef %0) #0 {
  %2 = getelementptr inbounds nuw i8, ptr %0, i64 72
  %3 = load ptr, ptr %2, align 8, !tbaa !4
  %4 = getelementptr inbounds nuw i8, ptr %3, i64 16
  %5 = load i32, ptr %4, align 8, !tbaa !57
  %6 = mul nsw i32 %5, 6
  %7 = getelementptr inbounds nuw i8, ptr %3, i64 8
  store i32 %6, ptr %7, align 8, !tbaa !36
  %8 = getelementptr inbounds nuw i8, ptr %3, i64 20
  %9 = load i32, ptr %8, align 4, !tbaa !58
  %10 = shl nsw i32 %9, 2
  %11 = getelementptr inbounds nuw i8, ptr %3, i64 12
  store i32 %10, ptr %11, align 4, !tbaa !37
  %12 = getelementptr inbounds nuw i8, ptr %3, i64 72
  store i32 1, ptr %12, align 8, !tbaa !28
  %13 = getelementptr inbounds nuw i8, ptr %3, i64 88
  store ptr @colorchart_fill_picture, ptr %13, align 8, !tbaa !20
  %14 = tail call i32 @init(ptr noundef %0) #19
  ret i32 0
}